target datalayout = "e-m:e-p270:32:32-p271:32:32-p272:64:64-i64:64-i128:128-f80:128-n8:16:32:64-S128"
target triple = "x86_64-pc-linux-gnu"

%"struct.std::_Vector_base" = type { %"struct.std::_Vector_base<int, std::allocator<int>>::_Vector_impl" }
%"struct.std::_Vector_base<int, std::allocator<int>>::_Vector_impl" = type { %"struct.std::_Vector_base<int, std::allocator<int>>::_Vector_impl_data" }
%"struct.std::_Vector_base<int, std::allocator<int>>::_Vector_impl_data" = type { ptr, ptr, ptr }
%"class.cv::xfeatures2d::LATCHDescriptorExtractorImpl" = type { %"class.cv::xfeatures2d::LATCH", i32, ptr, i8, i32, double, %"class.std::vector" }
%"class.cv::xfeatures2d::LATCH" = type { %"class.cv::Feature2D" }
%"class.cv::Feature2D" = type { %"class.cv::Algorithm" }
%"class.cv::Algorithm" = type { ptr }
%"class.std::vector" = type { %"struct.std::_Vector_base" }
%"class.cv::FileNode" = type { ptr, i64, i64 }

@.str.3 = private unnamed_addr constant [15 x i8] c"descriptorSize\00", align 1
@.str.4 = private unnamed_addr constant [19 x i8] c"rotationInvariance\00", align 1
@.str.5 = private unnamed_addr constant [14 x i8] c"half_ssd_size\00", align 1
@.str.6 = private unnamed_addr constant [6 x i8] c"sigma\00", align 1

; Function Attrs: mustprogress uwtable
define internal void @_ZN2cvL4readERKNS_8FileNodeERbb(ptr noundef nonnull align 8 dereferenceable(24) %0, ptr noundef nonnull align 1 dereferenceable(1) %1, i1 noundef zeroext %2) #4 {
  %4 = alloca ptr, align 8
  %5 = alloca ptr, align 8
  %6 = alloca i8, align 1
  %7 = alloca i32, align 4
  store ptr %0, ptr %4, align 8
  store ptr %1, ptr %5, align 8
  %8 = zext i1 %2 to i8
  store i8 %8, ptr %6, align 1
  %9 = load ptr, ptr %4, align 8
  %10 = load i8, ptr %6, align 1
  %11 = trunc i8 %10 to i1
  %12 = zext i1 %11 to i32
  call void @_ZN2cv4readERKNS_8FileNodeERii(ptr noundef nonnull align 8 dereferenceable(24) %9, ptr noundef nonnull align 4 dereferenceable(4) %7, i32 noundef %12)
  %13 = load i32, ptr %7, align 4
  %14 = icmp ne i32 %13, 0
  %15 = load ptr, ptr %5, align 8
  %16 = zext i1 %14 to i8
  store i8 %16, ptr %15, align 1
  ret void
}

; Function Attrs: mustprogress uwtable
define internal void @_ZN2cvrsIdEEvRKNS_8FileNodeERT_(ptr noundef nonnull align 8 dereferenceable(24) %0, ptr noundef nonnull align 8 dereferenceable(8) %1) #4 {
  %3 = alloca ptr, align 8
  %4 = alloca ptr, align 8
  store ptr %0, ptr %3, align 8
  store ptr %1, ptr %4, align 8
  %5 = load ptr, ptr %3, align 8
  %6 = load ptr, ptr %4, align 8
  call void @_ZN2cv4readERKNS_8FileNodeERdd(ptr noundef nonnull align 8 dereferenceable(24) %5, ptr noundef nonnull align 8 dereferenceable(8) %6, double noundef 0.000000e+00)
  ret void
}

; Function Attrs: mustprogress uwtable
define internal void @_ZN2cvrsIiEEvRKNS_8FileNodeERT_(ptr noundef nonnull align 8 dereferenceable(24) %0, ptr noundef nonnull align 4 dereferenceable(4) %1) #4 {
  %3 = alloca ptr, align 8
  %4 = alloca ptr, align 8
  store ptr %0, ptr %3, align 8
  store ptr %1, ptr %4, align 8
  %5 = load ptr, ptr %3, align 8
  %6 = load ptr, ptr %4, align 8
  call void @_ZN2cv4readERKNS_8FileNodeERii(ptr noundef nonnull align 8 dereferenceable(24) %5, ptr noundef nonnull align 4 dereferenceable(4) %6, i32 noundef 0)
  ret void
}

; Function Attrs: mustprogress uwtable
define internal void @_ZN2cvrsIbEEvRKNS_8FileNodeERT_(ptr noundef nonnull align 8 dereferenceable(24) %0, ptr noundef nonnull align 1 dereferenceable(1) %1) #4 {
  %3 = alloca ptr, align 8
  %4 = alloca ptr, align 8
  store ptr %0, ptr %3, align 8
  store ptr %1, ptr %4, align 8
  %5 = load ptr, ptr %3, align 8
  %6 = load ptr, ptr %4, align 8
  call void @_ZN2cvL4readERKNS_8FileNodeERbb(ptr noundef nonnull align 8 dereferenceable(24) %5, ptr noundef nonnull align 1 dereferenceable(1) %6, i1 noundef zeroext false)
  ret void
}

; Function Attrs: mustprogress uwtable
define hidden void @_ZN2cv11xfeatures2d28LATCHDescriptorExtractorImpl4readERKNS_8FileNodeE(ptr noundef nonnull align 8 dereferenceable(64) %0, ptr noundef nonnull align 8 dereferenceable(24) %1) unnamed_addr #4 align 2 {
  %3 = alloca ptr, align 8
  %4 = alloca ptr, align 8
  %5 = alloca %"class.cv::FileNode", align 8
  %6 = alloca i32, align 4
  %7 = alloca %"class.cv::FileNode", align 8
  %8 = alloca %"class.cv::FileNode", align 8
  %9 = alloca %"class.cv::FileNode", align 8
  %10 = alloca %"class.cv::FileNode", align 8
  %11 = alloca %"class.cv::FileNode", align 8
  %12 = alloca %"class.cv::FileNode", align 8
  %13 = alloca %"class.cv::FileNode", align 8
  store ptr %0, ptr %3, align 8
  store ptr %1, ptr %4, align 8
  %14 = load ptr, ptr %3, align 8
  %15 = load ptr, ptr %4, align 8
  call void @_ZNK2cv8FileNodeixEPKc(ptr dead_on_unwind writable sret(%"class.cv::FileNode") align 8 %5, ptr noundef nonnull align 8 dereferenceable(24) %15, ptr noundef @.str.3)
  %16 = call noundef zeroext i1 @_ZNK2cv8FileNode5emptyEv(ptr noundef nonnull align 8 dereferenceable(24) %5)
  %17 = xor i1 %16, true
  br i1 %17, label %18, label %22

18:                                               ; preds = %2
  %19 = load ptr, ptr %4, align 8
  call void @_ZNK2cv8FileNodeixEPKc(ptr dead_on_unwind writable sret(%"class.cv::FileNode") align 8 %7, ptr noundef nonnull align 8 dereferenceable(24) %19, ptr noundef @.str.3)
  %20 = call noundef i32 @_ZNK2cv8FileNodecviEv(ptr noundef nonnull align 8 dereferenceable(24) %7)
  store i32 %20, ptr %6, align 4
  %21 = load i32, ptr %6, align 4
  call void @_ZN2cv11xfeatures2d28LATCHDescriptorExtractorImpl8setBytesEi(ptr noundef nonnull align 8 dereferenceable(64) %14, i32 noundef %21)
  br label %22

22:                                               ; preds = %18, %2
  %23 = load ptr, ptr %4, align 8
  call void @_ZNK2cv8FileNodeixEPKc(ptr dead_on_unwind writable sret(%"class.cv::FileNode") align 8 %8, ptr noundef nonnull align 8 dereferenceable(24) %23, ptr noundef @.str.4)
  %24 = call noundef zeroext i1 @_ZNK2cv8FileNode5emptyEv(ptr noundef nonnull align 8 dereferenceable(24) %8)
  %25 = xor i1 %24, true
  br i1 %25, label %26, label %29

26:                                               ; preds = %22
  %27 = load ptr, ptr %4, align 8
  call void @_ZNK2cv8FileNodeixEPKc(ptr dead_on_unwind writable sret(%"class.cv::FileNode") align 8 %9, ptr noundef nonnull align 8 dereferenceable(24) %27, ptr noundef @.str.4)
  %28 = getelementptr inbounds %"class.cv::xfeatures2d::LATCHDescriptorExtractorImpl", ptr %14, i32 0, i32 3
  call void @_ZN2cvrsIbEEvRKNS_8FileNodeERT_(ptr noundef nonnull align 8 dereferenceable(24) %9, ptr noundef nonnull align 1 dereferenceable(1) %28)
  br label %29

29:                                               ; preds = %26, %22
  %30 = load ptr, ptr %4, align 8
  call void @_ZNK2cv8FileNodeixEPKc(ptr dead_on_unwind writable sret(%"class.cv::FileNode") align 8 %10, ptr noundef nonnull align 8 dereferenceable(24) %30, ptr noundef @.str.5)
  %31 = call noundef zeroext i1 @_ZNK2cv8FileNode5emptyEv(ptr noundef nonnull align 8 dereferenceable(24) %10)
  %32 = xor i1 %31, true
  br i1 %32, label %33, label %36

33:                                               ; preds = %29
  %34 = load ptr, ptr %4, align 8
  call void @_ZNK2cv8FileNodeixEPKc(ptr dead_on_unwind writable sret(%"class.cv::FileNode") align 8 %11, ptr noundef nonnull align 8 dereferenceable(24) %34, ptr noundef @.str.5)
  %35 = getelementptr inbounds %"class.cv::xfeatures2d::LATCHDescriptorExtractorImpl", ptr %14, i32 0, i32 4
  call void @_ZN2cvrsIiEEvRKNS_8FileNodeERT_(ptr noundef nonnull align 8 dereferenceable(24) %11, ptr noundef nonnull align 4 dereferenceable(4) %35)
  br label %36

36:                                               ; preds = %33, %29
  %37 = load ptr, ptr %4, align 8
  call void @_ZNK2cv8FileNodeixEPKc(ptr dead_on_unwind writable sret(%"class.cv::FileNode") align 8 %12, ptr noundef nonnull align 8 dereferenceable(24) %37, ptr noundef @.str.6)
  %38 = call noundef zeroext i1 @_ZNK2cv8FileNode5emptyEv(ptr noundef nonnull align 8 dereferenceable(24) %12)
  %39 = xor i1 %38, true
  br i1 %39, label %40, label %43

40:                                               ; preds = %36
  %41 = load ptr, ptr %4, align 8
  call void @_ZNK2cv8FileNodeixEPKc(ptr dead_on_unwind writable sret(%"class.cv::FileNode") align 8 %13, ptr noundef nonnull align 8 dereferenceable(24) %41, ptr noundef @.str.6)
  %42 = getelementptr inbounds %"class.cv::xfeatures2d::LATCHDescriptorExtractorImpl", ptr %14, i32 0, i32 5
  call void @_ZN2cvrsIdEEvRKNS_8FileNodeERT_(ptr noundef nonnull align 8 dereferenceable(24) %13, ptr noundef nonnull align 8 dereferenceable(8) %42)
  br label %43

43:                                               ; preds = %40, %36
  ret void
}