; Function Attrs: mustprogress uwtable
define hidden void @_ZN2cv11xfeatures2d28LATCHDescriptorExtractorImpl4readERKNS_8FileNodeE(ptr noundef nonnull align 8 dereferenceable(64) %0, ptr noundef nonnull align 8 dereferenceable(24) %1) unnamed_addr #3 align 2 {
  %3 = alloca i32, align 4
  %4 = alloca %"class.cv::FileNode", align 8
  %5 = alloca %"class.cv::FileNode", align 8
  %6 = alloca %"class.cv::FileNode", align 8
  %7 = alloca %"class.cv::FileNode", align 8
  %8 = alloca %"class.cv::FileNode", align 8
  %9 = alloca %"class.cv::FileNode", align 8
  %10 = alloca %"class.cv::FileNode", align 8
  %11 = alloca %"class.cv::FileNode", align 8
  call void @_ZNK2cv8FileNodeixEPKc(ptr dead_on_unwind nonnull writable sret(%"class.cv::FileNode") align 8 %4, ptr noundef nonnull align 8 dereferenceable(24) %1, ptr noundef nonnull @.str.3)
  %12 = call noundef zeroext i1 @_ZNK2cv8FileNode5emptyEv(ptr noundef nonnull align 8 dereferenceable(24) %4)
  br i1 %12, label %15, label %13

13:                                               ; preds = %2
  call void @_ZNK2cv8FileNodeixEPKc(ptr dead_on_unwind nonnull writable sret(%"class.cv::FileNode") align 8 %5, ptr noundef nonnull align 8 dereferenceable(24) %1, ptr noundef nonnull @.str.3)
  %14 = call noundef i32 @_ZNK2cv8FileNodecviEv(ptr noundef nonnull align 8 dereferenceable(24) %5)
  call void @_ZN2cv11xfeatures2d28LATCHDescriptorExtractorImpl8setBytesEi(ptr noundef nonnull align 8 dereferenceable(64) %0, i32 noundef %14)
  br label %15

15:                                               ; preds = %13, %2
  call void @_ZNK2cv8FileNodeixEPKc(ptr dead_on_unwind nonnull writable sret(%"class.cv::FileNode") align 8 %6, ptr noundef nonnull align 8 dereferenceable(24) %1, ptr noundef nonnull @.str.4)
  %16 = call noundef zeroext i1 @_ZNK2cv8FileNode5emptyEv(ptr noundef nonnull align 8 dereferenceable(24) %6)
  br i1 %16, label %22, label %17

17:                                               ; preds = %15
  call void @_ZNK2cv8FileNodeixEPKc(ptr dead_on_unwind nonnull writable sret(%"class.cv::FileNode") align 8 %7, ptr noundef nonnull align 8 dereferenceable(24) %1, ptr noundef nonnull @.str.4)
  %18 = getelementptr inbounds i8, ptr %0, i64 24
  call void @llvm.lifetime.start.p0(i64 4, ptr nonnull %3)
  call void @_ZN2cv4readERKNS_8FileNodeERii(ptr noundef nonnull align 8 dereferenceable(24) %7, ptr noundef nonnull align 4 dereferenceable(4) %3, i32 noundef 0)
  %19 = load i32, ptr %3, align 4
  %20 = icmp ne i32 %19, 0
  %21 = zext i1 %20 to i8
  store i8 %21, ptr %18, align 8
  call void @llvm.lifetime.end.p0(i64 4, ptr nonnull %3)
  br label %22

22:                                               ; preds = %17, %15
  call void @_ZNK2cv8FileNodeixEPKc(ptr dead_on_unwind nonnull writable sret(%"class.cv::FileNode") align 8 %8, ptr noundef nonnull align 8 dereferenceable(24) %1, ptr noundef nonnull @.str.5)
  %23 = call noundef zeroext i1 @_ZNK2cv8FileNode5emptyEv(ptr noundef nonnull align 8 dereferenceable(24) %8)
  br i1 %23, label %26, label %24

24:                                               ; preds = %22
  call void @_ZNK2cv8FileNodeixEPKc(ptr dead_on_unwind nonnull writable sret(%"class.cv::FileNode") align 8 %9, ptr noundef nonnull align 8 dereferenceable(24) %1, ptr noundef nonnull @.str.5)
  %25 = getelementptr inbounds i8, ptr %0, i64 28
  call void @_ZN2cv4readERKNS_8FileNodeERii(ptr noundef nonnull align 8 dereferenceable(24) %9, ptr noundef nonnull align 4 dereferenceable(4) %25, i32 noundef 0)
  br label %26

26:                                               ; preds = %24, %22
  call void @_ZNK2cv8FileNodeixEPKc(ptr dead_on_unwind nonnull writable sret(%"class.cv::FileNode") align 8 %10, ptr noundef nonnull align 8 dereferenceable(24) %1, ptr noundef nonnull @.str.6)
  %27 = call noundef zeroext i1 @_ZNK2cv8FileNode5emptyEv(ptr noundef nonnull align 8 dereferenceable(24) %10)
  br i1 %27, label %30, label %28

28:                                               ; preds = %26
  call void @_ZNK2cv8FileNodeixEPKc(ptr dead_on_unwind nonnull writable sret(%"class.cv::FileNode") align 8 %11, ptr noundef nonnull align 8 dereferenceable(24) %1, ptr noundef nonnull @.str.6)
  %29 = getelementptr inbounds i8, ptr %0, i64 32
  call void @_ZN2cv4readERKNS_8FileNodeERdd(ptr noundef nonnull align 8 dereferenceable(24) %11, ptr noundef nonnull align 8 dereferenceable(8) %29, double noundef 0.000000e+00)
  br label %30

30:                                               ; preds = %28, %26
  ret void
}